target datalayout = "e-m:e-p270:32:32-p271:32:32-p272:64:64-i64:64-i128:128-f80:128-n8:16:32:64-S128"
target triple = "x86_64-pc-linux-gnu"

@year_list = internal global ptr @.str.1, align 8
@month_list = internal global ptr @.str.2, align 8

; Function Attrs: nounwind uwtable
define internal void @my_constructor(ptr noundef %0, ptr noundef %1) #0 {
  %3 = alloca ptr, align 8
  %4 = alloca ptr, align 8
  %5 = alloca ptr, align 8
  %6 = alloca ptr, align 8
  %7 = alloca ptr, align 8
  store ptr %0, ptr %3, align 8, !tbaa !3
  store ptr %1, ptr %4, align 8, !tbaa !3
  call void @llvm.lifetime.start.p0(i64 8, ptr %5) #4
  %8 = load ptr, ptr %4, align 8, !tbaa !3
  %9 = call ptr @lv_obj_get_parent(ptr noundef %8)
  store ptr %9, ptr %5, align 8, !tbaa !3
  %10 = load ptr, ptr %4, align 8, !tbaa !3
  call void @lv_obj_move_to_index(ptr noundef %10, i32 noundef 0)
  %11 = load ptr, ptr %4, align 8, !tbaa !3
  call void @lv_obj_set_flex_flow(ptr noundef %11, i32 noundef 0)
  call void @llvm.lifetime.start.p0(i64 8, ptr %6) #4
  %12 = load ptr, ptr %4, align 8, !tbaa !3
  %13 = call ptr @lv_dropdown_create(ptr noundef %12)
  store ptr %13, ptr %6, align 8, !tbaa !3
  %14 = load ptr, ptr %6, align 8, !tbaa !3
  %15 = load ptr, ptr @year_list, align 8, !tbaa !3
  call void @lv_dropdown_set_options(ptr noundef %14, ptr noundef %15)
  %16 = load ptr, ptr %6, align 8, !tbaa !3
  %17 = load ptr, ptr %5, align 8, !tbaa !3
  %18 = call ptr @lv_obj_add_event_cb(ptr noundef %16, ptr noundef @year_event_cb, i32 noundef 35, ptr noundef %17)
  %19 = load ptr, ptr %6, align 8, !tbaa !3
  call void @lv_obj_set_flex_grow(ptr noundef %19, i8 noundef zeroext 1)
  call void @llvm.lifetime.start.p0(i64 8, ptr %7) #4
  %20 = load ptr, ptr %4, align 8, !tbaa !3
  %21 = call ptr @lv_dropdown_create(ptr noundef %20)
  store ptr %21, ptr %7, align 8, !tbaa !3
  %22 = load ptr, ptr %7, align 8, !tbaa !3
  %23 = load ptr, ptr @month_list, align 8, !tbaa !3
  call void @lv_dropdown_set_options(ptr noundef %22, ptr noundef %23)
  %24 = load ptr, ptr %7, align 8, !tbaa !3
  %25 = load ptr, ptr %5, align 8, !tbaa !3
  %26 = call ptr @lv_obj_add_event_cb(ptr noundef %24, ptr noundef @month_event_cb, i32 noundef 35, ptr noundef %25)
  %27 = load ptr, ptr %7, align 8, !tbaa !3
  call void @lv_obj_set_flex_grow(ptr noundef %27, i8 noundef zeroext 1)
  %28 = load ptr, ptr %4, align 8, !tbaa !3
  %29 = call ptr @lv_obj_add_event_cb(ptr noundef %28, ptr noundef @value_changed_event_cb, i32 noundef 35, ptr noundef null)
  %30 = load ptr, ptr %4, align 8, !tbaa !3
  %31 = call i32 @lv_obj_send_event(ptr noundef %30, i32 noundef 35, ptr noundef null)
  call void @llvm.lifetime.end.p0(i64 8, ptr %7) #4
  call void @llvm.lifetime.end.p0(i64 8, ptr %6) #4
  call void @llvm.lifetime.end.p0(i64 8, ptr %5) #4
  ret void
}