; Function Attrs: nounwind uwtable
define internal void @my_constructor(ptr nocapture readnone %0, ptr noundef %1) #0 {
  %3 = tail call ptr @lv_obj_get_parent(ptr noundef %1) #2
  tail call void @lv_obj_move_to_index(ptr noundef %1, i32 noundef 0) #2
  tail call void @lv_obj_set_flex_flow(ptr noundef %1, i32 noundef 0) #2
  %4 = tail call ptr @lv_dropdown_create(ptr noundef %1) #2
  tail call void @lv_dropdown_set_options(ptr noundef %4, ptr noundef nonnull @.str.1) #2
  %5 = tail call ptr @lv_obj_add_event_cb(ptr noundef %4, ptr noundef nonnull @year_event_cb, i32 noundef 35, ptr noundef %3) #2
  tail call void @lv_obj_set_flex_grow(ptr noundef %4, i8 noundef zeroext 1) #2
  %6 = tail call ptr @lv_dropdown_create(ptr noundef %1) #2
  tail call void @lv_dropdown_set_options(ptr noundef %6, ptr noundef nonnull @.str.2) #2
  %7 = tail call ptr @lv_obj_add_event_cb(ptr noundef %6, ptr noundef nonnull @month_event_cb, i32 noundef 35, ptr noundef %3) #2
  tail call void @lv_obj_set_flex_grow(ptr noundef %6, i8 noundef zeroext 1) #2
  %8 = tail call ptr @lv_obj_add_event_cb(ptr noundef %1, ptr noundef nonnull @value_changed_event_cb, i32 noundef 35, ptr noundef null) #2
  %9 = tail call i32 @lv_obj_send_event(ptr noundef %1, i32 noundef 35, ptr noundef null) #2
  ret void
}